target datalayout = "e-m:e-p270:32:32-p271:32:32-p272:64:64-i64:64-i128:128-f80:128-n8:16:32:64-S128"
target triple = "x86_64-pc-linux-gnu"

%struct.ossl_ml_kem_key_st = type { ptr, ptr, ptr, ptr, ptr, ptr, ptr, ptr, ptr, ptr, ptr, ptr, ptr, i32, i32, [64 x i8], ptr }
%struct.ML_KEM_VINFO = type { ptr, i64, i64, i64, i64, i64, i64, i64, i32, i32, i32, i32, i32, i32 }
%struct.ossl_param_st = type { ptr, i32, ptr, i64, i64 }

@.str.3 = private unnamed_addr constant [16 x i8] c"encoded-pub-key\00", align 1
@.str.9 = private unnamed_addr constant [60 x i8] c"../openssl/providers/implementations/keymgmt/ml_kem_kmgmt.c\00", align 1
@__func__.ml_kem_set_params = private unnamed_addr constant [18 x i8] c"ml_kem_set_params\00", align 1
@.str.10 = private unnamed_addr constant [30 x i8] c"ML-KEM keys cannot be mutated\00", align 1

; Function Attrs: inlinehint nounwind uwtable
define internal i32 @ossl_param_is_empty(ptr noundef %0) #4 {
  %2 = alloca ptr, align 8
  store ptr %0, ptr %2, align 8, !tbaa !7
  %3 = load ptr, ptr %2, align 8, !tbaa !7
  %4 = icmp eq ptr %3, null
  br i1 %4, label %10, label %5

5:                                                ; preds = %1
  %6 = load ptr, ptr %2, align 8, !tbaa !7
  %7 = getelementptr inbounds nuw %struct.ossl_param_st, ptr %6, i32 0, i32 0
  %8 = load ptr, ptr %7, align 8, !tbaa !54
  %9 = icmp eq ptr %8, null
  br label %10

10:                                               ; preds = %5, %1
  %11 = phi i1 [ true, %1 ], [ %9, %5 ]
  %12 = zext i1 %11 to i32
  ret i32 %12
}

; Function Attrs: nounwind uwtable
define internal i32 @ml_kem_set_params(ptr noundef %0, ptr noundef %1) #0 {
  %3 = alloca i32, align 4
  %4 = alloca ptr, align 8
  %5 = alloca ptr, align 8
  %6 = alloca ptr, align 8
  %7 = alloca ptr, align 8
  %8 = alloca ptr, align 8
  %9 = alloca i64, align 8
  %10 = alloca i32, align 4
  store ptr %0, ptr %4, align 8, !tbaa !3
  store ptr %1, ptr %5, align 8, !tbaa !7
  call void @llvm.lifetime.start.p0(i64 8, ptr %6) #7
  %11 = load ptr, ptr %4, align 8, !tbaa !3
  store ptr %11, ptr %6, align 8, !tbaa !9
  call void @llvm.lifetime.start.p0(i64 8, ptr %7) #7
  call void @llvm.lifetime.start.p0(i64 8, ptr %8) #7
  store ptr null, ptr %8, align 8, !tbaa !3
  call void @llvm.lifetime.start.p0(i64 8, ptr %9) #7
  store i64 0, ptr %9, align 8, !tbaa !37
  %12 = load ptr, ptr %5, align 8, !tbaa !7
  %13 = call i32 @ossl_param_is_empty(ptr noundef %12)
  %14 = icmp ne i32 %13, 0
  br i1 %14, label %15, label %16

15:                                               ; preds = %2
  store i32 1, ptr %3, align 4
  store i32 1, ptr %10, align 4
  br label %49

16:                                               ; preds = %2
  %17 = load ptr, ptr %5, align 8, !tbaa !7
  %18 = call ptr @OSSL_PARAM_locate_const(ptr noundef %17, ptr noundef @.str.3)
  store ptr %18, ptr %7, align 8, !tbaa !7
  %19 = load ptr, ptr %7, align 8, !tbaa !7
  %20 = icmp ne ptr %19, null
  br i1 %20, label %21, label %34

21:                                               ; preds = %16
  %22 = load ptr, ptr %7, align 8, !tbaa !7
  %23 = call i32 @OSSL_PARAM_get_octet_string_ptr(ptr noundef %22, ptr noundef %8, ptr noundef %9)
  %24 = icmp ne i32 %23, 1
  br i1 %24, label %33, label %25

25:                                               ; preds = %21
  %26 = load i64, ptr %9, align 8, !tbaa !37
  %27 = load ptr, ptr %6, align 8, !tbaa !9
  %28 = getelementptr inbounds nuw %struct.ossl_ml_kem_key_st, ptr %27, i32 0, i32 0
  %29 = load ptr, ptr %28, align 8, !tbaa !11
  %30 = getelementptr inbounds nuw %struct.ML_KEM_VINFO, ptr %29, i32 0, i32 3
  %31 = load i64, ptr %30, align 8, !tbaa !28
  %32 = icmp ne i64 %26, %31
  br i1 %32, label %33, label %34

33:                                               ; preds = %25, %21
  call void @ERR_new()
  call void @ERR_set_debug(ptr noundef @.str.9, i32 noundef 599, ptr noundef @__func__.ml_kem_set_params)
  call void (i32, i32, ptr, ...) @ERR_set_error(i32 noundef 57, i32 noundef 158, ptr noundef null)
  store i32 0, ptr %3, align 4
  store i32 1, ptr %10, align 4
  br label %49

34:                                               ; preds = %25, %16
  %35 = load i64, ptr %9, align 8, !tbaa !37
  %36 = icmp eq i64 %35, 0
  br i1 %36, label %37, label %38

37:                                               ; preds = %34
  store i32 1, ptr %3, align 4
  store i32 1, ptr %10, align 4
  br label %49

38:                                               ; preds = %34
  %39 = load ptr, ptr %6, align 8, !tbaa !9
  %40 = getelementptr inbounds nuw %struct.ossl_ml_kem_key_st, ptr %39, i32 0, i32 8
  %41 = load ptr, ptr %40, align 8, !tbaa !23
  %42 = icmp ne ptr %41, null
  br i1 %42, label %43, label %44

43:                                               ; preds = %38
  call void @ERR_new()
  call void @ERR_set_debug(ptr noundef @.str.9, i32 noundef 608, ptr noundef @__func__.ml_kem_set_params)
  call void (i32, i32, ptr, ...) @ERR_set_error(i32 noundef 57, i32 noundef 178, ptr noundef @.str.10)
  store i32 0, ptr %3, align 4
  store i32 1, ptr %10, align 4
  br label %49

44:                                               ; preds = %38
  %45 = load ptr, ptr %8, align 8, !tbaa !3
  %46 = load i64, ptr %9, align 8, !tbaa !37
  %47 = load ptr, ptr %6, align 8, !tbaa !9
  %48 = call i32 @ossl_ml_kem_parse_public_key(ptr noundef %45, i64 noundef %46, ptr noundef %47)
  store i32 %48, ptr %3, align 4
  store i32 1, ptr %10, align 4
  br label %49

49:                                               ; preds = %44, %43, %37, %33, %15
  call void @llvm.lifetime.end.p0(i64 8, ptr %9) #7
  call void @llvm.lifetime.end.p0(i64 8, ptr %8) #7
  call void @llvm.lifetime.end.p0(i64 8, ptr %7) #7
  call void @llvm.lifetime.end.p0(i64 8, ptr %6) #7
  %50 = load i32, ptr %3, align 4
  ret i32 %50
}