; Function Attrs: nounwind uwtable
define internal i32 @ml_kem_set_params(ptr noundef %0, ptr noundef %1) #0 {
  %3 = alloca ptr, align 8
  %4 = alloca i64, align 8
  call void @llvm.lifetime.start.p0(i64 8, ptr nonnull %3) #7
  store ptr null, ptr %3, align 8, !tbaa !33
  call void @llvm.lifetime.start.p0(i64 8, ptr nonnull %4) #7
  store i64 0, ptr %4, align 8, !tbaa !34
  %5 = icmp eq ptr %1, null
  br i1 %5, label %ossl_param_is_empty.exit.thread, label %ossl_param_is_empty.exit

ossl_param_is_empty.exit:                         ; preds = %2
  %6 = load ptr, ptr %1, align 8, !tbaa !35
  %.not = icmp eq ptr %6, null
  br i1 %.not, label %ossl_param_is_empty.exit.thread, label %7

7:                                                ; preds = %ossl_param_is_empty.exit
  %8 = tail call ptr @OSSL_PARAM_locate_const(ptr noundef nonnull %1, ptr noundef nonnull @.str.3) #7
  %.not10 = icmp eq ptr %8, null
  br i1 %.not10, label %ossl_param_is_empty.exit.thread, label %9

9:                                                ; preds = %7
  %10 = call i32 @OSSL_PARAM_get_octet_string_ptr(ptr noundef nonnull %8, ptr noundef nonnull %3, ptr noundef nonnull %4) #7
  %.not11 = icmp eq i32 %10, 1
  br i1 %.not11, label %11, label %16

11:                                               ; preds = %9
  %12 = load i64, ptr %4, align 8, !tbaa !34
  %13 = load ptr, ptr %0, align 8, !tbaa !14
  %14 = getelementptr inbounds nuw i8, ptr %13, i64 24
  %15 = load i64, ptr %14, align 8, !tbaa !24
  %.not12 = icmp eq i64 %12, %15
  br i1 %.not12, label %thread-pre-split, label %16

16:                                               ; preds = %11, %9
  call void @ERR_new() #7
  call void @ERR_set_debug(ptr noundef nonnull @.str.9, i32 noundef 599, ptr noundef nonnull @__func__.ml_kem_set_params) #7
  call void (i32, i32, ptr, ...) @ERR_set_error(i32 noundef 57, i32 noundef 158, ptr noundef null) #7
  br label %ossl_param_is_empty.exit.thread

thread-pre-split:                                 ; preds = %11
  %17 = icmp eq i64 %12, 0
  br i1 %17, label %ossl_param_is_empty.exit.thread, label %18

18:                                               ; preds = %thread-pre-split
  %19 = getelementptr inbounds nuw i8, ptr %0, i64 64
  %20 = load ptr, ptr %19, align 8, !tbaa !20
  %.not13 = icmp eq ptr %20, null
  br i1 %.not13, label %22, label %21

21:                                               ; preds = %18
  call void @ERR_new() #7
  call void @ERR_set_debug(ptr noundef nonnull @.str.9, i32 noundef 608, ptr noundef nonnull @__func__.ml_kem_set_params) #7
  call void (i32, i32, ptr, ...) @ERR_set_error(i32 noundef 57, i32 noundef 178, ptr noundef nonnull @.str.10) #7
  br label %ossl_param_is_empty.exit.thread

22:                                               ; preds = %18
  %23 = load ptr, ptr %3, align 8, !tbaa !33
  %24 = call i32 @ossl_ml_kem_parse_public_key(ptr noundef %23, i64 noundef %12, ptr noundef nonnull %0) #7
  br label %ossl_param_is_empty.exit.thread

ossl_param_is_empty.exit.thread:                  ; preds = %7, %2, %thread-pre-split, %ossl_param_is_empty.exit, %22, %21, %16
  %.0 = phi i32 [ 0, %16 ], [ 0, %21 ], [ %24, %22 ], [ 1, %ossl_param_is_empty.exit ], [ 1, %thread-pre-split ], [ 1, %2 ], [ 1, %7 ]
  call void @llvm.lifetime.end.p0(i64 8, ptr nonnull %4) #7
  call void @llvm.lifetime.end.p0(i64 8, ptr nonnull %3) #7
  ret i32 %.0
}